; Function Attrs: mustprogress uwtable
define dso_local noundef float @_ZN22btDeformableBodySolver23solveContactConstraintsEPP17btCollisionObjectiRK19btContactSolverInfo(ptr noundef nonnull readonly align 8 captures(none) dereferenceable(609) %0, ptr noundef %1, i32 noundef %2, ptr noundef nonnull align 4 dereferenceable(128) %3) unnamed_addr #4 align 2 personality ptr @__gxx_personality_v0 {
  %5 = alloca %class.CProfileSample, align 1
  call void @llvm.lifetime.start.p0(i64 1, ptr nonnull %5) #27
  call void @_ZN14CProfileSampleC1EPKc(ptr noundef nonnull align 1 dereferenceable(1) %5, ptr noundef nonnull @.str.10)
  %6 = getelementptr inbounds nuw i8, ptr %0, i64 600
  %7 = load ptr, ptr %6, align 8, !tbaa !104
  %8 = getelementptr inbounds nuw i8, ptr %7, i64 64
  %9 = invoke noundef float @_ZN29btDeformableContactProjection6updateEPP17btCollisionObjectiRK19btContactSolverInfo(ptr noundef nonnull align 8 dereferenceable(369) %8, ptr noundef %1, i32 noundef %2, ptr noundef nonnull align 4 dereferenceable(128) %3)
          to label %10 unwind label %11

10:                                               ; preds = %4
  call void @_ZN14CProfileSampleD1Ev(ptr noundef nonnull align 1 dereferenceable(1) %5) #27
  call void @llvm.lifetime.end.p0(i64 1, ptr nonnull %5) #27
  ret float %9

11:                                               ; preds = %4
  %12 = landingpad { ptr, i32 }
          cleanup
  call void @_ZN14CProfileSampleD1Ev(ptr noundef nonnull align 1 dereferenceable(1) %5) #27
  call void @llvm.lifetime.end.p0(i64 1, ptr nonnull %5) #27
  resume { ptr, i32 } %12
}